target datalayout = "e-m:e-p270:32:32-p271:32:32-p272:64:64-i64:64-i128:128-f80:128-n8:16:32:64-S128"
target triple = "x86_64-unknown-linux-gnu"

%class.buffer = type { ptr, i32, i32, [16 x %"union.std::aligned_storage<8, 8>::type"] }
%"union.std::aligned_storage<8, 8>::type" = type { [8 x i8] }

@.str = private unnamed_addr constant [119 x i8] c"generated/home/dtcxzyw/WorkSpace/Projects/compilers/llvm-opt-benchmark/bench/z3/z3/src/ast/rewriter/arith_rewriter.cpp\00", align 1
@.str.3 = private unnamed_addr constant [29 x i8] c"UNEXPECTED CODE WAS REACHED.\00", align 1

; Function Attrs: mustprogress nounwind uwtable
define linkonce_odr hidden void @_ZN6bufferIP4exprLb0ELj16EE8pop_backEv(ptr noundef nonnull align 8 dereferenceable(144) %this) #5 comdat align 2 {
entry:
  %this.addr = alloca ptr, align 8
  store ptr %this, ptr %this.addr, align 8
  %this1 = load ptr, ptr %this.addr, align 8
  %m_pos = getelementptr inbounds %class.buffer, ptr %this1, i32 0, i32 1
  %0 = load i32, ptr %m_pos, align 8
  %dec = add i32 %0, -1
  store i32 %dec, ptr %m_pos, align 8
  ret void
}

; Function Attrs: mustprogress uwtable
define linkonce_odr hidden void @_ZN6bufferIP4exprLb0ELj16EE6shrinkEj(ptr noundef nonnull align 8 dereferenceable(144) %this, i32 noundef %nsz) #4 comdat align 2 {
entry:
  %this.addr = alloca ptr, align 8
  %nsz.addr = alloca i32, align 4
  %sz = alloca i32, align 4
  %i = alloca i32, align 4
  store ptr %this, ptr %this.addr, align 8
  store i32 %nsz, ptr %nsz.addr, align 4
  %this1 = load ptr, ptr %this.addr, align 8
  %call = call noundef i32 @_ZNK6bufferIP4exprLb0ELj16EE4sizeEv(ptr noundef nonnull align 8 dereferenceable(144) %this1)
  store i32 %call, ptr %sz, align 4
  %0 = load i32, ptr %nsz.addr, align 4
  store i32 %0, ptr %i, align 4
  br label %for.cond

for.cond:                                         ; preds = %for.inc, %entry
  %1 = load i32, ptr %i, align 4
  %2 = load i32, ptr %sz, align 4
  %cmp = icmp ult i32 %1, %2
  br i1 %cmp, label %for.body, label %for.end

for.body:                                         ; preds = %for.cond
  call void @_ZN6bufferIP4exprLb0ELj16EE8pop_backEv(ptr noundef nonnull align 8 dereferenceable(144) %this1)
  br label %for.inc

for.inc:                                          ; preds = %for.body
  %3 = load i32, ptr %i, align 4
  %inc = add i32 %3, 1
  store i32 %inc, ptr %i, align 4
  br label %for.cond, !llvm.loop !30

for.end:                                          ; preds = %for.cond
  ret void
}

; Function Attrs: mustprogress nounwind uwtable
define linkonce_odr hidden noundef nonnull align 8 dereferenceable(8) ptr @_ZN6bufferIP4exprLb0ELj16EE4backEv(ptr noundef nonnull align 8 dereferenceable(144) %this) #5 comdat align 2 {
entry:
  %this.addr = alloca ptr, align 8
  store ptr %this, ptr %this.addr, align 8
  %this1 = load ptr, ptr %this.addr, align 8
  %m_buffer = getelementptr inbounds %class.buffer, ptr %this1, i32 0, i32 0
  %0 = load ptr, ptr %m_buffer, align 8
  %m_pos = getelementptr inbounds %class.buffer, ptr %this1, i32 0, i32 1
  %1 = load i32, ptr %m_pos, align 8
  %sub = sub i32 %1, 1
  %idxprom = zext i32 %sub to i64
  %arrayidx = getelementptr inbounds ptr, ptr %0, i64 %idxprom
  ret ptr %arrayidx
}

; Function Attrs: mustprogress nounwind uwtable
define linkonce_odr hidden noundef nonnull align 8 dereferenceable(8) ptr @_ZN6bufferIP4exprLb0ELj16EEixEj(ptr noundef nonnull align 8 dereferenceable(144) %this, i32 noundef %idx) #5 comdat align 2 {
entry:
  %this.addr = alloca ptr, align 8
  %idx.addr = alloca i32, align 4
  store ptr %this, ptr %this.addr, align 8
  store i32 %idx, ptr %idx.addr, align 4
  %this1 = load ptr, ptr %this.addr, align 8
  %m_buffer = getelementptr inbounds %class.buffer, ptr %this1, i32 0, i32 0
  %0 = load ptr, ptr %m_buffer, align 8
  %1 = load i32, ptr %idx.addr, align 4
  %idxprom = zext i32 %1 to i64
  %arrayidx = getelementptr inbounds ptr, ptr %0, i64 %idxprom
  ret ptr %arrayidx
}

; Function Attrs: mustprogress nounwind uwtable
define linkonce_odr hidden noundef i32 @_ZNK6bufferIP4exprLb0ELj16EE4sizeEv(ptr noundef nonnull align 8 dereferenceable(144) %this) #5 comdat align 2 {
entry:
  %this.addr = alloca ptr, align 8
  store ptr %this, ptr %this.addr, align 8
  %this1 = load ptr, ptr %this.addr, align 8
  %m_pos = getelementptr inbounds %class.buffer, ptr %this1, i32 0, i32 1
  %0 = load i32, ptr %m_pos, align 8
  ret i32 %0
}

; Function Attrs: mustprogress uwtable
define hidden void @_ZN14arith_rewriter14remove_divisorEP4exprR10ptr_bufferIS0_Lj16EE(ptr noundef nonnull align 8 dereferenceable(96) %this, ptr noundef %d, ptr noundef nonnull align 8 dereferenceable(144) %args) #4 align 2 {
entry:
  %this.addr = alloca ptr, align 8
  %d.addr = alloca ptr, align 8
  %args.addr = alloca ptr, align 8
  %i = alloca i32, align 4
  store ptr %this, ptr %this.addr, align 8
  store ptr %d, ptr %d.addr, align 8
  store ptr %args, ptr %args.addr, align 8
  store i32 0, ptr %i, align 4
  br label %for.cond

for.cond:                                         ; preds = %for.inc, %entry
  %0 = load i32, ptr %i, align 4
  %1 = load ptr, ptr %args.addr, align 8
  %call = call noundef i32 @_ZNK6bufferIP4exprLb0ELj16EE4sizeEv(ptr noundef nonnull align 8 dereferenceable(144) %1)
  %cmp = icmp ult i32 %0, %call
  br i1 %cmp, label %for.body, label %for.end

for.body:                                         ; preds = %for.cond
  %2 = load ptr, ptr %args.addr, align 8
  %3 = load i32, ptr %i, align 4
  %call2 = call noundef nonnull align 8 dereferenceable(8) ptr @_ZN6bufferIP4exprLb0ELj16EEixEj(ptr noundef nonnull align 8 dereferenceable(144) %2, i32 noundef %3)
  %4 = load ptr, ptr %call2, align 8
  %5 = load ptr, ptr %d.addr, align 8
  %cmp3 = icmp eq ptr %4, %5
  br i1 %cmp3, label %if.then, label %if.end

if.then:                                          ; preds = %for.body
  %6 = load ptr, ptr %args.addr, align 8
  %call4 = call noundef nonnull align 8 dereferenceable(8) ptr @_ZN6bufferIP4exprLb0ELj16EE4backEv(ptr noundef nonnull align 8 dereferenceable(144) %6)
  %7 = load ptr, ptr %call4, align 8
  %8 = load ptr, ptr %args.addr, align 8
  %9 = load i32, ptr %i, align 4
  %call5 = call noundef nonnull align 8 dereferenceable(8) ptr @_ZN6bufferIP4exprLb0ELj16EEixEj(ptr noundef nonnull align 8 dereferenceable(144) %8, i32 noundef %9)
  store ptr %7, ptr %call5, align 8
  %10 = load ptr, ptr %args.addr, align 8
  %11 = load ptr, ptr %args.addr, align 8
  %call6 = call noundef i32 @_ZNK6bufferIP4exprLb0ELj16EE4sizeEv(ptr noundef nonnull align 8 dereferenceable(144) %11)
  %sub = sub i32 %call6, 1
  call void @_ZN6bufferIP4exprLb0ELj16EE6shrinkEj(ptr noundef nonnull align 8 dereferenceable(144) %10, i32 noundef %sub)
  ret void

if.end:                                           ; preds = %for.body
  br label %for.inc

for.inc:                                          ; preds = %if.end
  %12 = load i32, ptr %i, align 4
  %inc = add i32 %12, 1
  store i32 %inc, ptr %i, align 4
  br label %for.cond, !llvm.loop !28

for.end:                                          ; preds = %for.cond
  call void @_Z26notify_assertion_violationPKciS0_(ptr noundef @.str, i32 noundef 1221, ptr noundef @.str.3)
  call void @exit(i32 noundef 114) #14
  unreachable
}