; Function Attrs: mustprogress uwtable
define hidden void @_ZN14arith_rewriter14remove_divisorEP4exprR10ptr_bufferIS0_Lj16EE(ptr nocapture noundef nonnull readnone align 8 dereferenceable(96) %this, ptr noundef readnone %d, ptr nocapture noundef nonnull align 8 dereferenceable(144) %args) local_unnamed_addr #3 align 2 {
entry:
  %m_pos.i = getelementptr inbounds i8, ptr %args, i64 8
  %0 = load i32, ptr %m_pos.i, align 8
  %cmp18.not = icmp eq i32 %0, 0
  br i1 %cmp18.not, label %for.end, label %for.body.lr.ph

for.body.lr.ph:                                   ; preds = %entry
  %1 = load ptr, ptr %args, align 8
  %wide.trip.count = zext i32 %0 to i64
  br label %for.body

for.cond:                                         ; preds = %for.body
  %indvars.iv.next = add nuw nsw i64 %indvars.iv, 1
  %exitcond.not = icmp eq i64 %indvars.iv.next, %wide.trip.count
  br i1 %exitcond.not, label %for.end, label %for.body, !llvm.loop !115

for.body:                                         ; preds = %for.body.lr.ph, %for.cond
  %indvars.iv = phi i64 [ 0, %for.body.lr.ph ], [ %indvars.iv.next, %for.cond ]
  %arrayidx.i = getelementptr inbounds ptr, ptr %1, i64 %indvars.iv
  %2 = load ptr, ptr %arrayidx.i, align 8
  %cmp3 = icmp eq ptr %2, %d
  br i1 %cmp3, label %if.then, label %for.cond

if.then:                                          ; preds = %for.body
  %arrayidx.i.le = getelementptr inbounds ptr, ptr %1, i64 %indvars.iv
  %sub.i = add i32 %0, -1
  %idxprom.i10 = zext i32 %sub.i to i64
  %arrayidx.i11 = getelementptr inbounds ptr, ptr %1, i64 %idxprom.i10
  %3 = load ptr, ptr %arrayidx.i11, align 8
  store ptr %3, ptr %arrayidx.i.le, align 8
  %4 = load i32, ptr %m_pos.i, align 8
  %cmp3.i.not = icmp eq i32 %4, 0
  br i1 %cmp3.i.not, label %_ZN6bufferIP4exprLb0ELj16EE6shrinkEj.exit, label %for.body.preheader.i

for.body.preheader.i:                             ; preds = %if.then
  %sub = add i32 %4, -1
  store i32 %sub, ptr %m_pos.i, align 8
  br label %_ZN6bufferIP4exprLb0ELj16EE6shrinkEj.exit

_ZN6bufferIP4exprLb0ELj16EE6shrinkEj.exit:        ; preds = %if.then, %for.body.preheader.i
  ret void

for.end:                                          ; preds = %for.cond, %entry
  tail call void @_Z26notify_assertion_violationPKciS0_(ptr noundef nonnull @.str, i32 noundef 1221, ptr noundef nonnull @.str.3)
  tail call void @exit(i32 noundef 114) #20
  unreachable
}